; ModuleID = '22/1002.c'
source_filename = "22/1002.c"
target datalayout = "e-m:e-p270:32:32-p271:32:32-p272:64:64-i64:64-f80:128-n8:16:32:64-S128"
target triple = "x86_64-pc-linux-gnu"

@.str = private unnamed_addr constant [3 x i8] c"%d\00", align 1
@.str.1 = private unnamed_addr constant [32 x i8] c"Invalid input numbet : negtive\0A\00", align 1
@.str.2 = private unnamed_addr constant [3 x i8] c"%c\00", align 1
@.str.3 = private unnamed_addr constant [4 x i8] c"No\0A\00", align 1
@.str.4 = private unnamed_addr constant [4 x i8] c"%d\0A\00", align 1

; Function Attrs: noinline nounwind uwtable
define dso_local i32 @main() #0 {
  %1 = alloca i32, align 4
  %2 = alloca i32, align 4
  %3 = alloca i32, align 4
  %4 = alloca i32, align 4
  %5 = alloca i32, align 4
  %6 = alloca i8, align 1
  store i32 0, i32* %1, align 4
  store i32 -1, i32* %2, align 4
  store i32 -1, i32* %3, align 4
  br label %7

7:                                                ; preds = %0, %45
  %8 = call i32 (i8*, ...) @__isoc99_scanf(i8* getelementptr inbounds ([3 x i8], [3 x i8]* @.str, i64 0, i64 0), i32* %4)
  store i32 %8, i32* %5, align 4
  %9 = load i32, i32* %5, align 4
  %10 = icmp ne i32 %9, 1
  br i1 %10, label %11, label %12

11:                                               ; preds = %7
  br label %46

12:                                               ; preds = %7
  %13 = load i32, i32* %4, align 4
  %14 = icmp slt i32 %13, 0
  br i1 %14, label %15, label %17

15:                                               ; preds = %12
  %16 = call i32 (i8*, ...) @printf(i8* getelementptr inbounds ([32 x i8], [32 x i8]* @.str.1, i64 0, i64 0))
  store i32 -1, i32* %1, align 4
  br label %55

17:                                               ; preds = %12
  %18 = load i32, i32* %4, align 4
  %19 = load i32, i32* %3, align 4
  %20 = icmp sgt i32 %18, %19
  br i1 %20, label %21, label %36

21:                                               ; preds = %17
  %22 = load i32, i32* %4, align 4
  %23 = load i32, i32* %2, align 4
  %24 = icmp sgt i32 %22, %23
  br i1 %24, label %25, label %28

25:                                               ; preds = %21
  %26 = load i32, i32* %2, align 4
  store i32 %26, i32* %3, align 4
  %27 = load i32, i32* %4, align 4
  store i32 %27, i32* %2, align 4
  br label %35

28:                                               ; preds = %21
  %29 = load i32, i32* %4, align 4
  %30 = load i32, i32* %2, align 4
  %31 = icmp ne i32 %29, %30
  br i1 %31, label %32, label %34

32:                                               ; preds = %28
  %33 = load i32, i32* %4, align 4
  store i32 %33, i32* %3, align 4
  br label %34

34:                                               ; preds = %32, %28
  br label %35

35:                                               ; preds = %34, %25
  br label %36

36:                                               ; preds = %35, %17
  %37 = call i32 (i8*, ...) @__isoc99_scanf(i8* getelementptr inbounds ([3 x i8], [3 x i8]* @.str.2, i64 0, i64 0), i8* %6)
  store i32 %37, i32* %5, align 4
  %38 = load i32, i32* %5, align 4
  %39 = icmp ne i32 %38, 1
  br i1 %39, label %44, label %40

40:                                               ; preds = %36
  %41 = load i8, i8* %6, align 1
  %42 = sext i8 %41 to i32
  %43 = icmp ne i32 %42, 44
  br i1 %43, label %44, label %45

44:                                               ; preds = %40, %36
  br label %46

45:                                               ; preds = %40
  br label %7

46:                                               ; preds = %44, %11
  %47 = load i32, i32* %3, align 4
  %48 = icmp eq i32 %47, -1
  br i1 %48, label %49, label %51

49:                                               ; preds = %46
  %50 = call i32 (i8*, ...) @printf(i8* getelementptr inbounds ([4 x i8], [4 x i8]* @.str.3, i64 0, i64 0))
  br label %54

51:                                               ; preds = %46
  %52 = load i32, i32* %3, align 4
  %53 = call i32 (i8*, ...) @printf(i8* getelementptr inbounds ([4 x i8], [4 x i8]* @.str.4, i64 0, i64 0), i32 %52)
  br label %54

54:                                               ; preds = %51, %49
  store i32 0, i32* %1, align 4
  br label %55

55:                                               ; preds = %54, %15
  %56 = load i32, i32* %1, align 4
  ret i32 %56
}

declare dso_local i32 @__isoc99_scanf(i8*, ...) #1

declare dso_local i32 @printf(i8*, ...) #1


!llvm.module.flags = !{!0}
!llvm.ident = !{!1}

!0 = !{i32 1, !"wchar_size", i32 4}
!1 = !{!"clang version 10.0.0-4ubuntu1 "}
