; ModuleID = 'source-C-CXX/21/1002.c'
source_filename = "source-C-CXX/21/1002.c"
target datalayout = "e-m:e-p270:32:32-p271:32:32-p272:64:64-i64:64-f80:128-n8:16:32:64-S128"
target triple = "x86_64-pc-linux-gnu"

@.str = private unnamed_addr constant [3 x i8] c"%d\00", align 1
@.str.2 = private unnamed_addr constant [3 x i8] c"%c\00", align 1
@.str.4 = private unnamed_addr constant [4 x i8] c"%d\0A\00", align 1
@str = private unnamed_addr constant [3 x i8] c"No\00", align 1
@str.5 = private unnamed_addr constant [31 x i8] c"Invalid input numbet : negtive\00", align 1

; Function Attrs: nofree nounwind sspstrong uwtable
define dso_local i32 @main() local_unnamed_addr #0 {
  %1 = alloca i32, align 4
  %2 = alloca i8, align 1
  %3 = bitcast i32* %1 to i8*
  call void @llvm.lifetime.start.p0i8(i64 4, i8* nonnull %3) #4
  call void @llvm.lifetime.start.p0i8(i64 1, i8* nonnull %2) #4
  br label %4

4:                                                ; preds = %21, %0
  %5 = phi i32 [ -1, %0 ], [ %22, %21 ]
  %6 = phi i32 [ -1, %0 ], [ %23, %21 ]
  %7 = call i32 (i8*, ...) @__isoc99_scanf(i8* getelementptr inbounds ([3 x i8], [3 x i8]* @.str, i64 0, i64 0), i32* nonnull %1)
  %8 = icmp eq i32 %7, 1
  br i1 %8, label %9, label %29

9:                                                ; preds = %4
  %10 = load i32, i32* %1, align 4, !tbaa !5
  %11 = icmp slt i32 %10, 0
  br i1 %11, label %12, label %14

12:                                               ; preds = %9
  %13 = call i32 @puts(i8* nonnull dereferenceable(1) getelementptr inbounds ([31 x i8], [31 x i8]* @str.5, i64 0, i64 0))
  br label %36

14:                                               ; preds = %9
  %15 = icmp sgt i32 %10, %6
  br i1 %15, label %16, label %21

16:                                               ; preds = %14
  %17 = icmp sgt i32 %10, %5
  br i1 %17, label %21, label %18

18:                                               ; preds = %16
  %19 = icmp eq i32 %10, %5
  %20 = select i1 %19, i32 %6, i32 %10
  br label %21

21:                                               ; preds = %18, %16, %14
  %22 = phi i32 [ %5, %14 ], [ %10, %16 ], [ %5, %18 ]
  %23 = phi i32 [ %6, %14 ], [ %5, %16 ], [ %20, %18 ]
  %24 = call i32 (i8*, ...) @__isoc99_scanf(i8* getelementptr inbounds ([3 x i8], [3 x i8]* @.str.2, i64 0, i64 0), i8* nonnull %2)
  %25 = icmp eq i32 %24, 1
  %26 = load i8, i8* %2, align 1
  %27 = icmp eq i8 %26, 44
  %28 = select i1 %25, i1 %27, i1 false
  br i1 %28, label %4, label %29

29:                                               ; preds = %21, %4
  %30 = phi i32 [ %6, %4 ], [ %23, %21 ]
  %31 = icmp eq i32 %30, -1
  br i1 %31, label %32, label %34

32:                                               ; preds = %29
  %33 = call i32 @puts(i8* nonnull dereferenceable(1) getelementptr inbounds ([3 x i8], [3 x i8]* @str, i64 0, i64 0))
  br label %36

34:                                               ; preds = %29
  %35 = call i32 (i8*, ...) @printf(i8* nonnull dereferenceable(1) getelementptr inbounds ([4 x i8], [4 x i8]* @.str.4, i64 0, i64 0), i32 %30)
  br label %36

36:                                               ; preds = %32, %34, %12
  %37 = phi i32 [ -1, %12 ], [ 0, %34 ], [ 0, %32 ]
  call void @llvm.lifetime.end.p0i8(i64 1, i8* nonnull %2) #4
  call void @llvm.lifetime.end.p0i8(i64 4, i8* nonnull %3) #4
  ret i32 %37
}

; Function Attrs: argmemonly mustprogress nofree nosync nounwind willreturn
declare void @llvm.lifetime.start.p0i8(i64 immarg, i8* nocapture) #1

; Function Attrs: nofree nounwind
declare noundef i32 @__isoc99_scanf(i8* nocapture noundef readonly, ...) local_unnamed_addr #2

; Function Attrs: nofree nounwind
declare noundef i32 @printf(i8* nocapture noundef readonly, ...) local_unnamed_addr #2

; Function Attrs: argmemonly mustprogress nofree nosync nounwind willreturn
declare void @llvm.lifetime.end.p0i8(i64 immarg, i8* nocapture) #1

; Function Attrs: nofree nounwind
declare noundef i32 @puts(i8* nocapture noundef readonly) local_unnamed_addr #3


!llvm.module.flags = !{!0, !1, !2, !3}
!llvm.ident = !{!4}

!0 = !{i32 1, !"wchar_size", i32 4}
!1 = !{i32 7, !"PIC Level", i32 2}
!2 = !{i32 7, !"PIE Level", i32 2}
!3 = !{i32 7, !"uwtable", i32 1}
!4 = !{!"clang version 13.0.0"}
!5 = !{!6, !6, i64 0}
!6 = !{!"int", !7, i64 0}
!7 = !{!"omnipotent char", !8, i64 0}
!8 = !{!"Simple C/C++ TBAA"}
